; Function Attrs: nounwind uwtable
define dso_local i64 @gist_poly_compress(ptr noundef readonly captures(none) %0) local_unnamed_addr #0 {
  %2 = getelementptr inbounds nuw i8, ptr %0, i64 32
  %3 = load i64, ptr %2, align 8
  %4 = inttoptr i64 %3 to ptr
  %5 = getelementptr inbounds nuw i8, ptr %4, i64 26
  %6 = load i8, ptr %5, align 2, !range !14, !noundef !15
  %7 = trunc nuw i8 %6 to i1
  br i1 %7, label %8, label %27

8:                                                ; preds = %1
  %9 = load i64, ptr %4, align 8
  %10 = inttoptr i64 %9 to ptr
  %11 = tail call ptr @pg_detoast_datum(ptr noundef %10) #16
  %12 = tail call ptr @palloc(i64 noundef 32) #16
  %13 = getelementptr inbounds nuw i8, ptr %11, i64 8
  tail call void @llvm.memcpy.p0.p0.i64(ptr noundef nonnull align 8 dereferenceable(32) %12, ptr noundef nonnull align 8 dereferenceable(32) %13, i64 32, i1 false)
  %14 = tail call ptr @palloc(i64 noundef 32) #16
  %15 = ptrtoint ptr %12 to i64
  store i64 %15, ptr %14, align 8
  %16 = getelementptr inbounds nuw i8, ptr %4, i64 8
  %17 = load ptr, ptr %16, align 8
  %18 = getelementptr inbounds nuw i8, ptr %14, i64 8
  store ptr %17, ptr %18, align 8
  %19 = getelementptr inbounds nuw i8, ptr %4, i64 16
  %20 = load ptr, ptr %19, align 8
  %21 = getelementptr inbounds nuw i8, ptr %14, i64 16
  store ptr %20, ptr %21, align 8
  %22 = getelementptr inbounds nuw i8, ptr %4, i64 24
  %23 = load i16, ptr %22, align 8
  %24 = getelementptr inbounds nuw i8, ptr %14, i64 24
  store i16 %23, ptr %24, align 8
  %25 = getelementptr inbounds nuw i8, ptr %14, i64 26
  store i8 0, ptr %25, align 2
  %26 = ptrtoint ptr %14 to i64
  br label %27

27:                                               ; preds = %1, %8
  %.0 = phi i64 [ %26, %8 ], [ %3, %1 ]
  ret i64 %.0
}